target datalayout = "e-m:e-p270:32:32-p271:32:32-p272:64:64-i64:64-i128:128-f80:128-n8:16:32:64-S128"
target triple = "x86_64-pc-linux-gnu"

%struct.prte_process_info_t = type { %struct.pmix_proc, %struct.pmix_proc, ptr, %struct.pmix_proc, i32, i32, i32, ptr, ptr, i32, i8, ptr, i16, ptr, ptr, i8, ptr, i8 }
%struct.pmix_proc = type { [256 x i8], i32 }
%struct.pmix_list_t = type { %struct.pmix_object_t, %struct.pmix_list_item_t, i64 }
%struct.pmix_object_t = type { %union.pthread_mutex_t, ptr, i32, %struct.pmix_tma }
%union.pthread_mutex_t = type { %struct.__pthread_mutex_s }
%struct.__pthread_mutex_s = type { i32, i32, i32, i32, i32, i16, i16, %struct.__pthread_internal_list }
%struct.__pthread_internal_list = type { ptr, ptr }
%struct.pmix_tma = type { ptr, ptr, ptr, ptr, ptr, ptr, ptr, ptr }
%struct.pmix_list_item_t = type { %struct.pmix_object_t, ptr, ptr, i32 }
%struct.pmix_output_desc_t = type { i8, i8, i32, i8, i32, ptr, ptr, i32, ptr, i32, i8, i8, i8, i8, ptr, i32, i32 }
%struct.prte_app_context_t = type { %struct.pmix_object_t, ptr, i32, ptr, i32, %struct.pmix_pointer_array_t, i32, i32, ptr, ptr, ptr, i8, %struct.pmix_list_t, %struct.pmix_cli_result_t }
%struct.pmix_pointer_array_t = type { %struct.pmix_object_t, i32, i32, i32, i32, i32, ptr, ptr }
%struct.pmix_cli_result_t = type { %struct.pmix_object_t, %struct.pmix_list_t, ptr }
%struct.prte_job_t = type { %struct.pmix_list_item_t, i32, ptr, ptr, [256 x i8], ptr, i32, i32, ptr, ptr, i32, i32, i32, i32, ptr, ptr, ptr, i32, i32, i32, i32, i32, i32, i32, %struct.pmix_proc, i32, i16, %struct.pmix_list_t, %struct.pmix_data_buffer, %struct.pmix_list_t, [256 x i8], i32, ptr, %struct.pmix_cli_result_t }
%struct.pmix_data_buffer = type { ptr, ptr, ptr, i64, i64 }
%struct.prte_node_t = type { %struct.pmix_list_item_t, i32, ptr, ptr, ptr, ptr, ptr, ptr, i16, ptr, i16, i8, i32, i32, i32, i32, ptr, i8, %struct.pmix_list_t }
%struct.prte_rmaps_options_t = type { i16, i8, i32, i32, ptr, ptr, i8, i8, i8, i8, i8, i16, i8, i8, i16, i32, i32, i32, i32, i16, i8, i32, i32, i32, i16, i8, i32, i16, ptr, ptr }
%struct.prte_job_map_t = type { %struct.pmix_object_t, ptr, ptr, i16, i16, i16, i8, i32, i32, i32, ptr }

@.str.1 = private unnamed_addr constant [30 x i8] c"base/rmaps_base_support_fns.c\00", align 1
@.str.2 = private unnamed_addr constant [25 x i8] c"help-prte-rmaps-base.txt\00", align 1
@prte_process_info = external global %struct.prte_process_info_t, align 8
@pmix_output_info = external global [0 x %struct.pmix_output_desc_t], align 8
@.str.37 = private unnamed_addr constant [28 x i8] c"prte-rmaps-base:alloc-error\00", align 1
@prte_exit_status = external global i32, align 4
@prte_debug_output = external global i32, align 4
@.str.38 = private unnamed_addr constant [37 x i8] c"%s:%s(%d) updating exit status to %d\00", align 1

; Function Attrs: nounwind uwtable
define i32 @prte_rmaps_base_check_oversubscribed(ptr noundef %0, ptr noundef %1, ptr noundef %2, ptr noundef %3) #0 {
  %5 = alloca i32, align 4
  %6 = alloca ptr, align 8
  %7 = alloca ptr, align 8
  %8 = alloca ptr, align 8
  %9 = alloca ptr, align 8
  store ptr %0, ptr %6, align 8, !tbaa !3
  store ptr %1, ptr %7, align 8, !tbaa !3
  store ptr %2, ptr %8, align 8, !tbaa !3
  store ptr %3, ptr %9, align 8, !tbaa !3
  %10 = load ptr, ptr %7, align 8, !tbaa !3
  %11 = getelementptr inbounds nuw %struct.prte_app_context_t, ptr %10, i32 0, i32 11
  %12 = load i8, ptr %11, align 8, !tbaa !79
  %13 = zext i8 %12 to i32
  %14 = and i32 %13, 2
  %15 = icmp ne i32 %14, 0
  br i1 %15, label %16, label %17

16:                                               ; preds = %4
  store i32 0, ptr %5, align 4
  br label %147

17:                                               ; preds = %4
  %18 = load ptr, ptr %9, align 8, !tbaa !3
  %19 = getelementptr inbounds nuw %struct.prte_rmaps_options_t, ptr %18, i32 0, i32 9
  %20 = load i8, ptr %19, align 1, !tbaa !140, !range !15, !noundef !16
  %21 = trunc i8 %20 to i1
  br i1 %21, label %32, label %22

22:                                               ; preds = %17
  %23 = load ptr, ptr %8, align 8, !tbaa !3
  %24 = getelementptr inbounds nuw %struct.prte_node_t, ptr %23, i32 0, i32 12
  %25 = load i32, ptr %24, align 4, !tbaa !89
  %26 = load ptr, ptr %8, align 8, !tbaa !3
  %27 = getelementptr inbounds nuw %struct.prte_node_t, ptr %26, i32 0, i32 8
  %28 = load i16, ptr %27, align 8, !tbaa !125
  %29 = zext i16 %28 to i32
  %30 = icmp eq i32 %25, %29
  br i1 %30, label %31, label %32

31:                                               ; preds = %22
  store i32 -46, ptr %5, align 4
  br label %147

32:                                               ; preds = %22, %17
  %33 = load ptr, ptr %8, align 8, !tbaa !3
  %34 = getelementptr inbounds nuw %struct.prte_node_t, ptr %33, i32 0, i32 12
  %35 = load i32, ptr %34, align 4, !tbaa !89
  %36 = load ptr, ptr %8, align 8, !tbaa !3
  %37 = getelementptr inbounds nuw %struct.prte_node_t, ptr %36, i32 0, i32 8
  %38 = load i16, ptr %37, align 8, !tbaa !125
  %39 = zext i16 %38 to i32
  %40 = icmp slt i32 %35, %39
  br i1 %40, label %41, label %146

41:                                               ; preds = %32
  %42 = load ptr, ptr %8, align 8, !tbaa !3
  %43 = getelementptr inbounds nuw %struct.prte_node_t, ptr %42, i32 0, i32 17
  %44 = load i8, ptr %43, align 8, !tbaa !58
  %45 = zext i8 %44 to i32
  %46 = or i32 %45, 4
  %47 = trunc i32 %46 to i8
  store i8 %47, ptr %43, align 8, !tbaa !58
  %48 = load ptr, ptr %6, align 8, !tbaa !3
  %49 = getelementptr inbounds nuw %struct.prte_job_t, ptr %48, i32 0, i32 26
  %50 = load i16, ptr %49, align 4, !tbaa !153
  %51 = zext i16 %50 to i32
  %52 = or i32 %51, 2048
  %53 = trunc i32 %52 to i16
  store i16 %53, ptr %49, align 4, !tbaa !153
  %54 = load ptr, ptr %9, align 8, !tbaa !3
  %55 = getelementptr inbounds nuw %struct.prte_rmaps_options_t, ptr %54, i32 0, i32 9
  %56 = load i8, ptr %55, align 1, !tbaa !140, !range !15, !noundef !16
  %57 = trunc i8 %56 to i1
  br i1 %57, label %58, label %59

58:                                               ; preds = %41
  store i32 0, ptr %5, align 4
  br label %147

59:                                               ; preds = %41
  %60 = load ptr, ptr %8, align 8, !tbaa !3
  %61 = getelementptr inbounds nuw %struct.prte_node_t, ptr %60, i32 0, i32 17
  %62 = load i8, ptr %61, align 8, !tbaa !58
  %63 = zext i8 %62 to i32
  %64 = and i32 %63, 16
  %65 = icmp ne i32 %64, 0
  br i1 %65, label %66, label %145

66:                                               ; preds = %59
  %67 = load ptr, ptr %6, align 8, !tbaa !3
  %68 = getelementptr inbounds nuw %struct.prte_job_t, ptr %67, i32 0, i32 15
  %69 = load ptr, ptr %68, align 8, !tbaa !147
  %70 = getelementptr inbounds nuw %struct.prte_job_map_t, ptr %69, i32 0, i32 3
  %71 = load i16, ptr %70, align 8, !tbaa !171
  %72 = zext i16 %71 to i32
  %73 = and i32 %72, 65280
  %74 = and i32 1024, %73
  %75 = icmp ne i32 %74, 0
  br i1 %75, label %107, label %76

76:                                               ; preds = %66
  %77 = load ptr, ptr %7, align 8, !tbaa !3
  %78 = getelementptr inbounds nuw %struct.prte_app_context_t, ptr %77, i32 0, i32 4
  %79 = load i32, ptr %78, align 8, !tbaa !172
  %80 = load ptr, ptr %7, align 8, !tbaa !3
  %81 = getelementptr inbounds nuw %struct.prte_app_context_t, ptr %80, i32 0, i32 3
  %82 = load ptr, ptr %81, align 8, !tbaa !17
  %83 = load ptr, ptr getelementptr inbounds nuw (%struct.prte_process_info_t, ptr @prte_process_info, i32 0, i32 7), align 8, !tbaa !173
  %84 = call i32 (ptr, ptr, i32, ...) @pmix_show_help(ptr noundef @.str.2, ptr noundef @.str.37, i32 noundef 1, i32 noundef %79, ptr noundef %82, ptr noundef %83)
  br label %85

85:                                               ; preds = %76
  %86 = load i32, ptr @prte_exit_status, align 4, !tbaa !11
  %87 = icmp eq i32 0, %86
  br i1 %87, label %88, label %105

88:                                               ; preds = %85
  %89 = load i32, ptr @prte_debug_output, align 4, !tbaa !11
  %90 = icmp sge i32 %89, 0
  br i1 %90, label %91, label %104

91:                                               ; preds = %88
  %92 = load i32, ptr @prte_debug_output, align 4, !tbaa !11
  %93 = icmp slt i32 %92, 64
  br i1 %93, label %94, label %104

94:                                               ; preds = %91
  %95 = load i32, ptr @prte_debug_output, align 4, !tbaa !11
  %96 = sext i32 %95 to i64
  %97 = getelementptr inbounds [0 x %struct.pmix_output_desc_t], ptr @pmix_output_info, i64 0, i64 %96
  %98 = getelementptr inbounds nuw %struct.pmix_output_desc_t, ptr %97, i32 0, i32 2
  %99 = load i32, ptr %98, align 4, !tbaa !43
  %100 = icmp sge i32 %99, 1
  br i1 %100, label %101, label %104

101:                                              ; preds = %94
  %102 = load i32, ptr @prte_debug_output, align 4, !tbaa !11
  %103 = call ptr @prte_util_print_name_args(ptr noundef @prte_process_info)
  call void (i32, ptr, ...) @pmix_output(i32 noundef %102, ptr noundef @.str.38, ptr noundef %103, ptr noundef @.str.1, i32 noundef 832, i32 noundef 1)
  br label %104

104:                                              ; preds = %101, %94, %91, %88
  store i32 1, ptr @prte_exit_status, align 4, !tbaa !11
  br label %105

105:                                              ; preds = %104, %85
  br label %106

106:                                              ; preds = %105
  store i32 -43, ptr %5, align 4
  br label %147

107:                                              ; preds = %66
  %108 = load ptr, ptr %9, align 8, !tbaa !3
  %109 = getelementptr inbounds nuw %struct.prte_rmaps_options_t, ptr %108, i32 0, i32 9
  %110 = load i8, ptr %109, align 1, !tbaa !140, !range !15, !noundef !16
  %111 = trunc i8 %110 to i1
  br i1 %111, label %143, label %112

112:                                              ; preds = %107
  %113 = load ptr, ptr %7, align 8, !tbaa !3
  %114 = getelementptr inbounds nuw %struct.prte_app_context_t, ptr %113, i32 0, i32 4
  %115 = load i32, ptr %114, align 8, !tbaa !172
  %116 = load ptr, ptr %7, align 8, !tbaa !3
  %117 = getelementptr inbounds nuw %struct.prte_app_context_t, ptr %116, i32 0, i32 3
  %118 = load ptr, ptr %117, align 8, !tbaa !17
  %119 = load ptr, ptr getelementptr inbounds nuw (%struct.prte_process_info_t, ptr @prte_process_info, i32 0, i32 7), align 8, !tbaa !173
  %120 = call i32 (ptr, ptr, i32, ...) @pmix_show_help(ptr noundef @.str.2, ptr noundef @.str.37, i32 noundef 1, i32 noundef %115, ptr noundef %118, ptr noundef %119)
  br label %121

121:                                              ; preds = %112
  %122 = load i32, ptr @prte_exit_status, align 4, !tbaa !11
  %123 = icmp eq i32 0, %122
  br i1 %123, label %124, label %141

124:                                              ; preds = %121
  %125 = load i32, ptr @prte_debug_output, align 4, !tbaa !11
  %126 = icmp sge i32 %125, 0
  br i1 %126, label %127, label %140

127:                                              ; preds = %124
  %128 = load i32, ptr @prte_debug_output, align 4, !tbaa !11
  %129 = icmp slt i32 %128, 64
  br i1 %129, label %130, label %140

130:                                              ; preds = %127
  %131 = load i32, ptr @prte_debug_output, align 4, !tbaa !11
  %132 = sext i32 %131 to i64
  %133 = getelementptr inbounds [0 x %struct.pmix_output_desc_t], ptr @pmix_output_info, i64 0, i64 %132
  %134 = getelementptr inbounds nuw %struct.pmix_output_desc_t, ptr %133, i32 0, i32 2
  %135 = load i32, ptr %134, align 4, !tbaa !43
  %136 = icmp sge i32 %135, 1
  br i1 %136, label %137, label %140

137:                                              ; preds = %130
  %138 = load i32, ptr @prte_debug_output, align 4, !tbaa !11
  %139 = call ptr @prte_util_print_name_args(ptr noundef @prte_process_info)
  call void (i32, ptr, ...) @pmix_output(i32 noundef %138, ptr noundef @.str.38, ptr noundef %139, ptr noundef @.str.1, i32 noundef 838, i32 noundef 1)
  br label %140

140:                                              ; preds = %137, %130, %127, %124
  store i32 1, ptr @prte_exit_status, align 4, !tbaa !11
  br label %141

141:                                              ; preds = %140, %121
  br label %142

142:                                              ; preds = %141
  store i32 -43, ptr %5, align 4
  br label %147

143:                                              ; preds = %107
  br label %144

144:                                              ; preds = %143
  br label %145

145:                                              ; preds = %144, %59
  br label %146

146:                                              ; preds = %145, %32
  store i32 0, ptr %5, align 4
  br label %147

147:                                              ; preds = %146, %142, %106, %58, %31, %16
  %148 = load i32, ptr %5, align 4
  ret i32 %148
}