; Function Attrs: nounwind uwtable
define range(i32 -46, 1) i32 @prte_rmaps_base_check_oversubscribed(ptr noundef captures(none) %0, ptr noundef readonly captures(none) %1, ptr noundef captures(none) %2, ptr noundef readonly captures(none) %3) local_unnamed_addr #0 {
  %5 = getelementptr inbounds nuw i8, ptr %1, i64 344
  %6 = load i8, ptr %5, align 8, !tbaa !77
  %7 = and i8 %6, 2
  %.not = icmp eq i8 %7, 0
  br i1 %.not, label %8, label %56

8:                                                ; preds = %4
  %9 = getelementptr inbounds nuw i8, ptr %3, i64 35
  %10 = load i8, ptr %9, align 1, !tbaa !119, !range !27, !noundef !28
  %11 = trunc nuw i8 %10 to i1
  %.phi.trans.insert = getelementptr inbounds nuw i8, ptr %2, i64 220
  %.pre = load i32, ptr %.phi.trans.insert, align 4, !tbaa !87
  %.phi.trans.insert24 = getelementptr inbounds nuw i8, ptr %2, i64 200
  %.pre25 = load i16, ptr %.phi.trans.insert24, align 8, !tbaa !105
  %.pre26 = zext i16 %.pre25 to i32
  %12 = icmp ne i32 %.pre, %.pre26
  %or.cond28.not = select i1 %11, i1 true, i1 %12
  br i1 %or.cond28.not, label %._crit_edge, label %56

._crit_edge:                                      ; preds = %8
  %13 = icmp slt i32 %.pre, %.pre26
  br i1 %13, label %14, label %56

14:                                               ; preds = %._crit_edge
  %15 = getelementptr inbounds nuw i8, ptr %2, i64 248
  %16 = load i8, ptr %15, align 8, !tbaa !59
  %17 = or i8 %16, 4
  store i8 %17, ptr %15, align 8, !tbaa !59
  %18 = getelementptr inbounds nuw i8, ptr %0, i64 788
  %19 = load i16, ptr %18, align 4, !tbaa !132
  %20 = or i16 %19, 2048
  store i16 %20, ptr %18, align 4, !tbaa !132
  %21 = and i8 %16, 16
  %.not21 = icmp eq i8 %21, 0
  %or.cond23 = select i1 %11, i1 true, i1 %.not21
  br i1 %or.cond23, label %56, label %22

22:                                               ; preds = %14
  %23 = getelementptr inbounds nuw i8, ptr %0, i64 480
  %24 = load ptr, ptr %23, align 8, !tbaa !126
  %25 = getelementptr inbounds nuw i8, ptr %24, i64 136
  %26 = load i16, ptr %25, align 8, !tbaa !148
  %27 = and i16 %26, 1024
  %.not22 = icmp eq i16 %27, 0
  %28 = getelementptr inbounds nuw i8, ptr %1, i64 144
  %29 = load i32, ptr %28, align 8, !tbaa !149
  %30 = getelementptr inbounds nuw i8, ptr %1, i64 136
  %31 = load ptr, ptr %30, align 8, !tbaa !17
  %32 = load ptr, ptr getelementptr inbounds nuw (i8, ptr @prte_process_info, i64 800), align 8, !tbaa !150
  %33 = tail call i32 (ptr, ptr, i32, ...) @pmix_show_help(ptr noundef nonnull @.str.2, ptr noundef nonnull @.str.37, i32 noundef 1, i32 noundef %29, ptr noundef %31, ptr noundef %32) #11
  %34 = load i32, ptr @prte_exit_status, align 4, !tbaa !24
  %35 = icmp eq i32 %34, 0
  br i1 %.not22, label %36, label %46

36:                                               ; preds = %22
  br i1 %35, label %37, label %56

37:                                               ; preds = %36
  %38 = load i32, ptr @prte_debug_output, align 4, !tbaa !24
  %or.cond = icmp ult i32 %38, 64
  br i1 %or.cond, label %39, label %.sink.split

39:                                               ; preds = %37
  %40 = zext nneg i32 %38 to i64
  %41 = getelementptr inbounds nuw [0 x %struct.pmix_output_desc_t], ptr @pmix_output_info, i64 0, i64 %40, i32 2
  %42 = load i32, ptr %41, align 4, !tbaa !40
  %43 = icmp sgt i32 %42, 0
  br i1 %43, label %44, label %.sink.split

44:                                               ; preds = %39
  %45 = tail call ptr @prte_util_print_name_args(ptr noundef nonnull @prte_process_info) #11
  tail call void (i32, ptr, ...) @pmix_output(i32 noundef %38, ptr noundef nonnull @.str.38, ptr noundef %45, ptr noundef nonnull @.str.1, i32 noundef 832, i32 noundef 1) #11
  br label %.sink.split

46:                                               ; preds = %22
  br i1 %35, label %47, label %56

47:                                               ; preds = %46
  %48 = load i32, ptr @prte_debug_output, align 4, !tbaa !24
  %or.cond3 = icmp ult i32 %48, 64
  br i1 %or.cond3, label %49, label %.sink.split

49:                                               ; preds = %47
  %50 = zext nneg i32 %48 to i64
  %51 = getelementptr inbounds nuw [0 x %struct.pmix_output_desc_t], ptr @pmix_output_info, i64 0, i64 %50, i32 2
  %52 = load i32, ptr %51, align 4, !tbaa !40
  %53 = icmp sgt i32 %52, 0
  br i1 %53, label %54, label %.sink.split

54:                                               ; preds = %49
  %55 = tail call ptr @prte_util_print_name_args(ptr noundef nonnull @prte_process_info) #11
  tail call void (i32, ptr, ...) @pmix_output(i32 noundef %48, ptr noundef nonnull @.str.38, ptr noundef %55, ptr noundef nonnull @.str.1, i32 noundef 838, i32 noundef 1) #11
  br label %.sink.split

.sink.split:                                      ; preds = %47, %49, %54, %37, %39, %44
  store i32 1, ptr @prte_exit_status, align 4, !tbaa !24
  br label %56

56:                                               ; preds = %.sink.split, %8, %._crit_edge, %46, %36, %14, %4
  %.0 = phi i32 [ 0, %4 ], [ 0, %14 ], [ -43, %36 ], [ -43, %46 ], [ 0, %._crit_edge ], [ -46, %8 ], [ -43, %.sink.split ]
  ret i32 %.0
}